target datalayout = "e-m:e-p270:32:32-p271:32:32-p272:64:64-i64:64-i128:128-f80:128-n8:16:32:64-S128"
target triple = "x86_64-pc-linux-gnu"

%"struct.Luau::CodeGen::A64::RegisterA64" = type { i8 }
%"class.Luau::CodeGen::A64::AssemblyBuilderA64" = type { %"class.std::vector", %"class.std::vector.0", %"class.std::__cxx11::basic_string", i8, i32, i32, %"class.std::vector.8", %"class.std::vector.0", i8, i8, i64, ptr, ptr }
%"class.std::vector" = type { %"struct.std::_Vector_base" }
%"struct.std::_Vector_base" = type { %"struct.std::_Vector_base<unsigned char, std::allocator<unsigned char>>::_Vector_impl" }
%"struct.std::_Vector_base<unsigned char, std::allocator<unsigned char>>::_Vector_impl" = type { %"struct.std::_Vector_base<unsigned char, std::allocator<unsigned char>>::_Vector_impl_data" }
%"struct.std::_Vector_base<unsigned char, std::allocator<unsigned char>>::_Vector_impl_data" = type { ptr, ptr, ptr }
%"class.std::__cxx11::basic_string" = type { %"struct.std::__cxx11::basic_string<char>::_Alloc_hider", i64, %union.anon }
%"struct.std::__cxx11::basic_string<char>::_Alloc_hider" = type { ptr }
%union.anon = type { i64, [8 x i8] }
%"class.std::vector.8" = type { %"struct.std::_Vector_base.9" }
%"struct.std::_Vector_base.9" = type { %"struct.std::_Vector_base<Luau::CodeGen::A64::AssemblyBuilderA64::Patch, std::allocator<Luau::CodeGen::A64::AssemblyBuilderA64::Patch>>::_Vector_impl" }
%"struct.std::_Vector_base<Luau::CodeGen::A64::AssemblyBuilderA64::Patch, std::allocator<Luau::CodeGen::A64::AssemblyBuilderA64::Patch>>::_Vector_impl" = type { %"struct.std::_Vector_base<Luau::CodeGen::A64::AssemblyBuilderA64::Patch, std::allocator<Luau::CodeGen::A64::AssemblyBuilderA64::Patch>>::_Vector_impl_data" }
%"struct.std::_Vector_base<Luau::CodeGen::A64::AssemblyBuilderA64::Patch, std::allocator<Luau::CodeGen::A64::AssemblyBuilderA64::Patch>>::_Vector_impl_data" = type { ptr, ptr, ptr }
%"class.std::vector.0" = type { %"struct.std::_Vector_base.1" }
%"struct.std::_Vector_base.1" = type { %"struct.std::_Vector_base<unsigned int, std::allocator<unsigned int>>::_Vector_impl" }
%"struct.std::_Vector_base<unsigned int, std::allocator<unsigned int>>::_Vector_impl" = type { %"struct.std::_Vector_base<unsigned int, std::allocator<unsigned int>>::_Vector_impl_data" }
%"struct.std::_Vector_base<unsigned int, std::allocator<unsigned int>>::_Vector_impl_data" = type { ptr, ptr, ptr }

@.str.4 = private unnamed_addr constant [4 x i8] c"add\00", align 1

; Function Attrs: mustprogress uwtable
define dso_local void @_ZN4Luau7CodeGen3A6418AssemblyBuilderA646commitEv(ptr noundef nonnull align 8 dereferenceable(176) %0) #0 align 2 {
  %2 = alloca ptr, align 8
  store ptr %0, ptr %2, align 8, !tbaa !4
  %3 = load ptr, ptr %2, align 8
  %4 = getelementptr inbounds nuw %"class.Luau::CodeGen::A64::AssemblyBuilderA64", ptr %3, i32 0, i32 12
  %5 = load ptr, ptr %4, align 8, !tbaa !41
  %6 = getelementptr inbounds nuw %"class.Luau::CodeGen::A64::AssemblyBuilderA64", ptr %3, i32 0, i32 11
  %7 = load ptr, ptr %6, align 8, !tbaa !40
  %8 = icmp eq ptr %5, %7
  br i1 %8, label %9, label %10

9:                                                ; preds = %1
  call void @_ZN4Luau7CodeGen3A6418AssemblyBuilderA646extendEv(ptr noundef nonnull align 8 dereferenceable(176) %3)
  br label %10

10:                                               ; preds = %9, %1
  ret void
}

; Function Attrs: mustprogress nounwind uwtable
define dso_local void @_ZN4Luau7CodeGen3A6418AssemblyBuilderA645placeEj(ptr noundef nonnull align 8 dereferenceable(176) %0, i32 noundef %1) #1 align 2 {
  %3 = alloca ptr, align 8
  %4 = alloca i32, align 4
  store ptr %0, ptr %3, align 8, !tbaa !4
  store i32 %1, ptr %4, align 4, !tbaa !11
  %5 = load ptr, ptr %3, align 8
  %6 = load i32, ptr %4, align 4, !tbaa !11
  %7 = getelementptr inbounds nuw %"class.Luau::CodeGen::A64::AssemblyBuilderA64", ptr %5, i32 0, i32 11
  %8 = load ptr, ptr %7, align 8, !tbaa !40
  %9 = getelementptr inbounds nuw i32, ptr %8, i32 1
  store ptr %9, ptr %7, align 8, !tbaa !40
  store i32 %6, ptr %8, align 4, !tbaa !11
  ret void
}

; Function Attrs: mustprogress uwtable
define dso_local void @_ZN4Luau7CodeGen3A6418AssemblyBuilderA648placeSR3EPKcNS1_11RegisterA64ES5_S5_hii(ptr noundef nonnull align 8 dereferenceable(176) %0, ptr noundef %1, i8 %2, i8 %3, i8 %4, i8 noundef zeroext %5, i32 noundef %6, i32 noundef %7) #0 align 2 {
  %9 = alloca %"struct.Luau::CodeGen::A64::RegisterA64", align 1
  %10 = alloca %"struct.Luau::CodeGen::A64::RegisterA64", align 1
  %11 = alloca %"struct.Luau::CodeGen::A64::RegisterA64", align 1
  %12 = alloca ptr, align 8
  %13 = alloca ptr, align 8
  %14 = alloca i8, align 1
  %15 = alloca i32, align 4
  %16 = alloca i32, align 4
  %17 = alloca %"struct.Luau::CodeGen::A64::RegisterA64", align 1
  %18 = alloca %"struct.Luau::CodeGen::A64::RegisterA64", align 1
  %19 = alloca %"struct.Luau::CodeGen::A64::RegisterA64", align 1
  %20 = alloca i32, align 4
  %21 = getelementptr inbounds nuw %"struct.Luau::CodeGen::A64::RegisterA64", ptr %9, i32 0, i32 0
  store i8 %2, ptr %21, align 1
  %22 = getelementptr inbounds nuw %"struct.Luau::CodeGen::A64::RegisterA64", ptr %10, i32 0, i32 0
  store i8 %3, ptr %22, align 1
  %23 = getelementptr inbounds nuw %"struct.Luau::CodeGen::A64::RegisterA64", ptr %11, i32 0, i32 0
  store i8 %4, ptr %23, align 1
  store ptr %0, ptr %12, align 8, !tbaa !4
  store ptr %1, ptr %13, align 8, !tbaa !61
  store i8 %5, ptr %14, align 1, !tbaa !58
  store i32 %6, ptr %15, align 4, !tbaa !11
  store i32 %7, ptr %16, align 4, !tbaa !11
  %24 = load ptr, ptr %12, align 8
  %25 = getelementptr inbounds nuw %"class.Luau::CodeGen::A64::AssemblyBuilderA64", ptr %24, i32 0, i32 3
  %26 = load i8, ptr %25, align 8, !tbaa !15, !range !13, !noundef !14
  %27 = trunc i8 %26 to i1
  br i1 %27, label %28, label %37

28:                                               ; preds = %8
  %29 = load ptr, ptr %13, align 8, !tbaa !61
  call void @llvm.memcpy.p0.p0.i64(ptr align 1 %17, ptr align 1 %9, i64 1, i1 false), !tbaa.struct !57
  call void @llvm.memcpy.p0.p0.i64(ptr align 1 %18, ptr align 1 %10, i64 1, i1 false), !tbaa.struct !57
  call void @llvm.memcpy.p0.p0.i64(ptr align 1 %19, ptr align 1 %11, i64 1, i1 false), !tbaa.struct !57
  %30 = load i32, ptr %15, align 4, !tbaa !11
  %31 = getelementptr inbounds nuw %"struct.Luau::CodeGen::A64::RegisterA64", ptr %17, i32 0, i32 0
  %32 = load i8, ptr %31, align 1
  %33 = getelementptr inbounds nuw %"struct.Luau::CodeGen::A64::RegisterA64", ptr %18, i32 0, i32 0
  %34 = load i8, ptr %33, align 1
  %35 = getelementptr inbounds nuw %"struct.Luau::CodeGen::A64::RegisterA64", ptr %19, i32 0, i32 0
  %36 = load i8, ptr %35, align 1
  call void @_ZN4Luau7CodeGen3A6418AssemblyBuilderA643logEPKcNS1_11RegisterA64ES5_S5_i(ptr noundef nonnull align 8 dereferenceable(176) %24, ptr noundef %29, i8 %32, i8 %34, i8 %36, i32 noundef %30)
  br label %37

37:                                               ; preds = %28, %8
  call void @llvm.lifetime.start.p0(i64 4, ptr %20) #18
  %38 = load i8, ptr %9, align 1
  %39 = and i8 %38, 7
  %40 = icmp eq i8 %39, 2
  %41 = select i1 %40, i32 -2147483648, i32 0
  store i32 %41, ptr %20, align 4, !tbaa !11
  %42 = load i8, ptr %9, align 1
  %43 = lshr i8 %42, 3
  %44 = zext i8 %43 to i32
  %45 = load i8, ptr %10, align 1
  %46 = lshr i8 %45, 3
  %47 = zext i8 %46 to i32
  %48 = shl i32 %47, 5
  %49 = or i32 %44, %48
  %50 = load i32, ptr %15, align 4, !tbaa !11
  %51 = icmp slt i32 %50, 0
  br i1 %51, label %52, label %55

52:                                               ; preds = %37
  %53 = load i32, ptr %15, align 4, !tbaa !11
  %54 = sub nsw i32 0, %53
  br label %57

55:                                               ; preds = %37
  %56 = load i32, ptr %15, align 4, !tbaa !11
  br label %57

57:                                               ; preds = %55, %52
  %58 = phi i32 [ %54, %52 ], [ %56, %55 ]
  %59 = shl i32 %58, 10
  %60 = or i32 %49, %59
  %61 = load i8, ptr %11, align 1
  %62 = lshr i8 %61, 3
  %63 = zext i8 %62 to i32
  %64 = shl i32 %63, 16
  %65 = or i32 %60, %64
  %66 = load i32, ptr %16, align 4, !tbaa !11
  %67 = shl i32 %66, 21
  %68 = or i32 %65, %67
  %69 = load i32, ptr %15, align 4, !tbaa !11
  %70 = icmp slt i32 %69, 0
  %71 = zext i1 %70 to i32
  %72 = shl i32 %71, 22
  %73 = or i32 %68, %72
  %74 = load i8, ptr %14, align 1, !tbaa !58
  %75 = zext i8 %74 to i32
  %76 = shl i32 %75, 24
  %77 = or i32 %73, %76
  %78 = load i32, ptr %20, align 4, !tbaa !11
  %79 = or i32 %77, %78
  call void @_ZN4Luau7CodeGen3A6418AssemblyBuilderA645placeEj(ptr noundef nonnull align 8 dereferenceable(176) %24, i32 noundef %79)
  call void @_ZN4Luau7CodeGen3A6418AssemblyBuilderA646commitEv(ptr noundef nonnull align 8 dereferenceable(176) %24)
  call void @llvm.lifetime.end.p0(i64 4, ptr %20) #18
  ret void
}

; Function Attrs: mustprogress uwtable
define dso_local void @_ZN4Luau7CodeGen3A6418AssemblyBuilderA647placeEREPKcNS1_11RegisterA64ES5_S5_hi(ptr noundef nonnull align 8 dereferenceable(176) %0, ptr noundef %1, i8 %2, i8 %3, i8 %4, i8 noundef zeroext %5, i32 noundef %6) #0 align 2 {
  %8 = alloca %"struct.Luau::CodeGen::A64::RegisterA64", align 1
  %9 = alloca %"struct.Luau::CodeGen::A64::RegisterA64", align 1
  %10 = alloca %"struct.Luau::CodeGen::A64::RegisterA64", align 1
  %11 = alloca ptr, align 8
  %12 = alloca ptr, align 8
  %13 = alloca i8, align 1
  %14 = alloca i32, align 4
  %15 = alloca %"struct.Luau::CodeGen::A64::RegisterA64", align 1
  %16 = alloca %"struct.Luau::CodeGen::A64::RegisterA64", align 1
  %17 = alloca %"struct.Luau::CodeGen::A64::RegisterA64", align 1
  %18 = alloca i32, align 4
  %19 = alloca i32, align 4
  %20 = getelementptr inbounds nuw %"struct.Luau::CodeGen::A64::RegisterA64", ptr %8, i32 0, i32 0
  store i8 %2, ptr %20, align 1
  %21 = getelementptr inbounds nuw %"struct.Luau::CodeGen::A64::RegisterA64", ptr %9, i32 0, i32 0
  store i8 %3, ptr %21, align 1
  %22 = getelementptr inbounds nuw %"struct.Luau::CodeGen::A64::RegisterA64", ptr %10, i32 0, i32 0
  store i8 %4, ptr %22, align 1
  store ptr %0, ptr %11, align 8, !tbaa !4
  store ptr %1, ptr %12, align 8, !tbaa !61
  store i8 %5, ptr %13, align 1, !tbaa !58
  store i32 %6, ptr %14, align 4, !tbaa !11
  %23 = load ptr, ptr %11, align 8
  %24 = getelementptr inbounds nuw %"class.Luau::CodeGen::A64::AssemblyBuilderA64", ptr %23, i32 0, i32 3
  %25 = load i8, ptr %24, align 8, !tbaa !15, !range !13, !noundef !14
  %26 = trunc i8 %25 to i1
  br i1 %26, label %27, label %36

27:                                               ; preds = %7
  %28 = load ptr, ptr %12, align 8, !tbaa !61
  call void @llvm.memcpy.p0.p0.i64(ptr align 1 %15, ptr align 1 %8, i64 1, i1 false), !tbaa.struct !57
  call void @llvm.memcpy.p0.p0.i64(ptr align 1 %16, ptr align 1 %9, i64 1, i1 false), !tbaa.struct !57
  call void @llvm.memcpy.p0.p0.i64(ptr align 1 %17, ptr align 1 %10, i64 1, i1 false), !tbaa.struct !57
  %29 = load i32, ptr %14, align 4, !tbaa !11
  %30 = getelementptr inbounds nuw %"struct.Luau::CodeGen::A64::RegisterA64", ptr %15, i32 0, i32 0
  %31 = load i8, ptr %30, align 1
  %32 = getelementptr inbounds nuw %"struct.Luau::CodeGen::A64::RegisterA64", ptr %16, i32 0, i32 0
  %33 = load i8, ptr %32, align 1
  %34 = getelementptr inbounds nuw %"struct.Luau::CodeGen::A64::RegisterA64", ptr %17, i32 0, i32 0
  %35 = load i8, ptr %34, align 1
  call void @_ZN4Luau7CodeGen3A6418AssemblyBuilderA643logEPKcNS1_11RegisterA64ES5_S5_i(ptr noundef nonnull align 8 dereferenceable(176) %23, ptr noundef %28, i8 %31, i8 %33, i8 %35, i32 noundef %29)
  br label %36

36:                                               ; preds = %27, %7
  call void @llvm.lifetime.start.p0(i64 4, ptr %18) #18
  %37 = load i8, ptr %8, align 1
  %38 = and i8 %37, 7
  %39 = icmp eq i8 %38, 2
  %40 = select i1 %39, i32 -2147483648, i32 0
  store i32 %40, ptr %18, align 4, !tbaa !11
  call void @llvm.lifetime.start.p0(i64 4, ptr %19) #18
  store i32 2, ptr %19, align 4, !tbaa !11
  %41 = load i8, ptr %8, align 1
  %42 = lshr i8 %41, 3
  %43 = zext i8 %42 to i32
  %44 = load i8, ptr %9, align 1
  %45 = lshr i8 %44, 3
  %46 = zext i8 %45 to i32
  %47 = shl i32 %46, 5
  %48 = or i32 %43, %47
  %49 = load i32, ptr %14, align 4, !tbaa !11
  %50 = shl i32 %49, 10
  %51 = or i32 %48, %50
  %52 = load i32, ptr %19, align 4, !tbaa !11
  %53 = shl i32 %52, 13
  %54 = or i32 %51, %53
  %55 = load i8, ptr %10, align 1
  %56 = lshr i8 %55, 3
  %57 = zext i8 %56 to i32
  %58 = shl i32 %57, 16
  %59 = or i32 %54, %58
  %60 = or i32 %59, 2097152
  %61 = load i8, ptr %13, align 1, !tbaa !58
  %62 = zext i8 %61 to i32
  %63 = shl i32 %62, 24
  %64 = or i32 %60, %63
  %65 = load i32, ptr %18, align 4, !tbaa !11
  %66 = or i32 %64, %65
  call void @_ZN4Luau7CodeGen3A6418AssemblyBuilderA645placeEj(ptr noundef nonnull align 8 dereferenceable(176) %23, i32 noundef %66)
  call void @_ZN4Luau7CodeGen3A6418AssemblyBuilderA646commitEv(ptr noundef nonnull align 8 dereferenceable(176) %23)
  call void @llvm.lifetime.end.p0(i64 4, ptr %19) #18
  call void @llvm.lifetime.end.p0(i64 4, ptr %18) #18
  ret void
}

; Function Attrs: mustprogress uwtable
define dso_local void @_ZN4Luau7CodeGen3A6418AssemblyBuilderA643addENS1_11RegisterA64ES3_S3_i(ptr noundef nonnull align 8 dereferenceable(176) %0, i8 %1, i8 %2, i8 %3, i32 noundef %4) #0 align 2 {
  %6 = alloca %"struct.Luau::CodeGen::A64::RegisterA64", align 1
  %7 = alloca %"struct.Luau::CodeGen::A64::RegisterA64", align 1
  %8 = alloca %"struct.Luau::CodeGen::A64::RegisterA64", align 1
  %9 = alloca ptr, align 8
  %10 = alloca i32, align 4
  %11 = alloca %"struct.Luau::CodeGen::A64::RegisterA64", align 1
  %12 = alloca %"struct.Luau::CodeGen::A64::RegisterA64", align 1
  %13 = alloca %"struct.Luau::CodeGen::A64::RegisterA64", align 1
  %14 = alloca %"struct.Luau::CodeGen::A64::RegisterA64", align 1
  %15 = alloca %"struct.Luau::CodeGen::A64::RegisterA64", align 1
  %16 = alloca %"struct.Luau::CodeGen::A64::RegisterA64", align 1
  %17 = getelementptr inbounds nuw %"struct.Luau::CodeGen::A64::RegisterA64", ptr %6, i32 0, i32 0
  store i8 %1, ptr %17, align 1
  %18 = getelementptr inbounds nuw %"struct.Luau::CodeGen::A64::RegisterA64", ptr %7, i32 0, i32 0
  store i8 %2, ptr %18, align 1
  %19 = getelementptr inbounds nuw %"struct.Luau::CodeGen::A64::RegisterA64", ptr %8, i32 0, i32 0
  store i8 %3, ptr %19, align 1
  store ptr %0, ptr %9, align 8, !tbaa !4
  store i32 %4, ptr %10, align 4, !tbaa !11
  %20 = load ptr, ptr %9, align 8
  %21 = load i8, ptr %7, align 1
  %22 = and i8 %21, 7
  %23 = icmp eq i8 %22, 2
  br i1 %23, label %24, label %36

24:                                               ; preds = %5
  %25 = load i8, ptr %8, align 1
  %26 = and i8 %25, 7
  %27 = icmp eq i8 %26, 1
  br i1 %27, label %28, label %36

28:                                               ; preds = %24
  call void @llvm.memcpy.p0.p0.i64(ptr align 1 %11, ptr align 1 %6, i64 1, i1 false), !tbaa.struct !57
  call void @llvm.memcpy.p0.p0.i64(ptr align 1 %12, ptr align 1 %7, i64 1, i1 false), !tbaa.struct !57
  call void @llvm.memcpy.p0.p0.i64(ptr align 1 %13, ptr align 1 %8, i64 1, i1 false), !tbaa.struct !57
  %29 = load i32, ptr %10, align 4, !tbaa !11
  %30 = getelementptr inbounds nuw %"struct.Luau::CodeGen::A64::RegisterA64", ptr %11, i32 0, i32 0
  %31 = load i8, ptr %30, align 1
  %32 = getelementptr inbounds nuw %"struct.Luau::CodeGen::A64::RegisterA64", ptr %12, i32 0, i32 0
  %33 = load i8, ptr %32, align 1
  %34 = getelementptr inbounds nuw %"struct.Luau::CodeGen::A64::RegisterA64", ptr %13, i32 0, i32 0
  %35 = load i8, ptr %34, align 1
  call void @_ZN4Luau7CodeGen3A6418AssemblyBuilderA647placeEREPKcNS1_11RegisterA64ES5_S5_hi(ptr noundef nonnull align 8 dereferenceable(176) %20, ptr noundef @.str.4, i8 %31, i8 %33, i8 %35, i8 noundef zeroext 11, i32 noundef %29)
  br label %44

36:                                               ; preds = %24, %5
  call void @llvm.memcpy.p0.p0.i64(ptr align 1 %14, ptr align 1 %6, i64 1, i1 false), !tbaa.struct !57
  call void @llvm.memcpy.p0.p0.i64(ptr align 1 %15, ptr align 1 %7, i64 1, i1 false), !tbaa.struct !57
  call void @llvm.memcpy.p0.p0.i64(ptr align 1 %16, ptr align 1 %8, i64 1, i1 false), !tbaa.struct !57
  %37 = load i32, ptr %10, align 4, !tbaa !11
  %38 = getelementptr inbounds nuw %"struct.Luau::CodeGen::A64::RegisterA64", ptr %14, i32 0, i32 0
  %39 = load i8, ptr %38, align 1
  %40 = getelementptr inbounds nuw %"struct.Luau::CodeGen::A64::RegisterA64", ptr %15, i32 0, i32 0
  %41 = load i8, ptr %40, align 1
  %42 = getelementptr inbounds nuw %"struct.Luau::CodeGen::A64::RegisterA64", ptr %16, i32 0, i32 0
  %43 = load i8, ptr %42, align 1
  call void @_ZN4Luau7CodeGen3A6418AssemblyBuilderA648placeSR3EPKcNS1_11RegisterA64ES5_S5_hii(ptr noundef nonnull align 8 dereferenceable(176) %20, ptr noundef @.str.4, i8 %39, i8 %41, i8 %43, i8 noundef zeroext 11, i32 noundef %37, i32 noundef 0)
  br label %44

44:                                               ; preds = %36, %28
  ret void
}